; Function Attrs: mustprogress uwtable
define void @_ZN3nix5chompB5cxx11ESt17basic_string_viewIcSt11char_traitsIcEE(ptr dead_on_unwind noalias writable sret(%"class.std::__cxx11::basic_string") align 8 %0, i64 %1, ptr %2) local_unnamed_addr #4 personality ptr @__gxx_personality_v0 {
  %4 = alloca %"class.std::allocator.0", align 1
  %5 = alloca %"class.std::allocator.0", align 1
  %.not.i.i = icmp eq i64 %1, 0
  br i1 %.not.i.i, label %.loopexit, label %_ZNSt11char_traitsIcE4findEPKcmRS1_.exit.i.i

_ZNSt11char_traitsIcE4findEPKcmRS1_.exit.i.i:     ; preds = %3, %11
  %.1.i.i.in = phi i64 [ %.1.i.i, %11 ], [ %1, %3 ]
  %.1.i.i = add i64 %.1.i.i.in, -1
  %6 = getelementptr inbounds i8, ptr %2, i64 %.1.i.i
  %7 = load i8, ptr %6, align 1
  %8 = zext nneg i8 %7 to i64
  %memchr.bounds = icmp ugt i8 %7, 63
  %9 = shl nuw i64 1, %8
  %10 = and i64 %9, 4294977024
  %memchr.bits = icmp eq i64 %10, 0
  %memchr.not = select i1 %memchr.bounds, i1 true, i1 %memchr.bits
  br i1 %memchr.not, label %_ZNKSt17basic_string_viewIcSt11char_traitsIcEE16find_last_not_ofEPKcm.exit, label %11

11:                                               ; preds = %_ZNSt11char_traitsIcE4findEPKcmRS1_.exit.i.i
  %.not15.i.i = icmp eq i64 %.1.i.i, 0
  br i1 %.not15.i.i, label %.loopexit, label %_ZNSt11char_traitsIcE4findEPKcmRS1_.exit.i.i, !llvm.loop !12

.loopexit:                                        ; preds = %11, %3
  call void @_ZNSaIcEC1Ev(ptr noundef nonnull align 1 dereferenceable(1) %4) #25
  invoke void @_ZNSt7__cxx1112basic_stringIcSt11char_traitsIcESaIcEEC2IS3_EEPKcRKS3_(ptr noundef nonnull align 8 dereferenceable(32) %0, ptr noundef nonnull @.str.5, ptr noundef nonnull align 1 dereferenceable(1) %4)
          to label %_ZNSt7__cxx1112basic_stringIcSt11char_traitsIcESaIcEEC2ISt17basic_string_viewIcS2_EvEERKT_mmRKS3_.exit unwind label %14

_ZNKSt17basic_string_viewIcSt11char_traitsIcEE16find_last_not_ofEPKcm.exit: ; preds = %_ZNSt11char_traitsIcE4findEPKcmRS1_.exit.i.i
  call void @_ZNSaIcEC1Ev(ptr noundef nonnull align 1 dereferenceable(1) %5) #25
  %.sroa.speculated.i.i = call i64 @llvm.umin.i64(i64 %1, i64 %.1.i.i.in)
  invoke void @_ZNSt7__cxx1112basic_stringIcSt11char_traitsIcESaIcEEC2EPKcmRKS3_(ptr noundef nonnull align 8 dereferenceable(32) %0, ptr noundef nonnull %2, i64 noundef %.sroa.speculated.i.i, ptr noundef nonnull align 1 dereferenceable(1) %5)
          to label %_ZNSt7__cxx1112basic_stringIcSt11char_traitsIcESaIcEEC2ISt17basic_string_viewIcS2_EvEERKT_mmRKS3_.exit unwind label %12

_ZNSt7__cxx1112basic_stringIcSt11char_traitsIcESaIcEEC2ISt17basic_string_viewIcS2_EvEERKT_mmRKS3_.exit: ; preds = %.loopexit, %_ZNKSt17basic_string_viewIcSt11char_traitsIcEE16find_last_not_ofEPKcm.exit
  %.sink = phi ptr [ %5, %_ZNKSt17basic_string_viewIcSt11char_traitsIcEE16find_last_not_ofEPKcm.exit ], [ %4, %.loopexit ]
  call void @_ZNSaIcED1Ev(ptr noundef nonnull align 1 dereferenceable(1) %.sink) #25
  ret void

12:                                               ; preds = %_ZNKSt17basic_string_viewIcSt11char_traitsIcEE16find_last_not_ofEPKcm.exit
  %13 = landingpad { ptr, i32 }
          cleanup
  br label %16

14:                                               ; preds = %.loopexit
  %15 = landingpad { ptr, i32 }
          cleanup
  br label %16

16:                                               ; preds = %12, %14
  %.sink26 = phi ptr [ %5, %12 ], [ %4, %14 ]
  %.pn21 = phi { ptr, i32 } [ %13, %12 ], [ %15, %14 ]
  call void @_ZNSaIcED1Ev(ptr noundef nonnull align 1 dereferenceable(1) %.sink26) #25
  resume { ptr, i32 } %.pn21
}